Certificate:
    Data:
        Version: 3 (0x2)
        Serial Number:
            18:bb:4e:1c:bf:b9:44:cc:58:c7:36:a5:5d:e6:b7:bd:8e:90:95:e9
        Signature Algorithm: sha256WithRSAEncryption
        Issuer: CN=ca
        Validity
            Not Before: Aug 29 15:51:06 2024 GMT
            Not After : Aug  5 15:51:06 2124 GMT
        Subject: CN=gocql
        Subject Public Key Info:
            Public Key Algorithm: rsaEncryption
                Public-Key: (4096 bit)
                Modulus:
                    00:b1:23:d0:d4:e6:23:b1:9e:6c:15:29:50:10:6e:
                    af:7e:06:c8:63:26:b9:bc:7a:48:a4:81:06:2d:b0:
                    5c:0d:33:66:de:1f:6f:9b:3c:98:48:96:32:36:25:
                    c6:08:a6:11:1b:97:5a:5b:7a:ee:ee:8c:cf:2b:11:
                    2d:ac:17:99:52:7d:90:d4:da:e5:24:c2:a8:64:c0:
                    79:0d:70:3a:da:6c:be:24:a6:96:1c:aa:5a:3b:7a:
                    c3:a6:1a:92:dd:a4:95:9c:45:05:10:d5:42:89:c6:
                    94:0b:d5:9f:53:de:32:5f:41:e0:1f:87:3a:90:f1:
                    e0:bd:5a:e3:09:82:97:d8:75:86:6f:18:15:06:48:
                    33:fa:f1:7a:82:cf:13:97:8c:a1:72:98:5a:81:73:
                    54:e1:df:72:7f:49:82:e0:ab:29:27:2a:02:be:23:
                    0a:f7:13:84:2f:97:68:7e:10:7e:8a:fc:1e:c0:3e:
                    a9:20:2f:02:f1:6f:6e:cd:1f:31:d9:c1:55:fe:1a:
                    8c:23:b4:53:91:05:c8:bf:6e:c2:9a:c2:be:c8:d5:
                    cc:2c:36:c6:80:b0:fd:0b:88:c7:e4:db:7d:17:ff:
                    71:b0:f0:b2:04:57:ab:e5:04:9c:86:8e:e6:e6:7f:
                    07:41:44:91:4d:bb:d2:d7:1a:65:11:4f:68:99:11:
                    b9:58:98:99:0e:82:94:a4:32:99:f6:ad:43:83:dc:
                    89:74:14:42:b5:0d:db:8e:17:93:01:c0:cc:c4:cd:
                    f1:cf:59:3c:05:89:7b:04:e9:5f:88:90:ad:52:01:
                    04:4e:b4:ed:76:f4:0c:00:bd:62:ed:75:95:a9:d1:
                    42:e4:aa:97:cd:4b:3c:5d:69:78:a0:f4:0f:37:68:
                    52:56:9f:bc:d5:33:a7:52:e3:db:70:15:d6:06:8c:
                    60:99:c5:44:16:91:25:33:8f:96:e1:dd:81:1c:63:
                    12:e0:35:54:42:03:d9:be:89:2b:97:5d:75:9f:7d:
                    13:ef:c8:86:fb:d6:52:7d:86:04:df:89:48:f7:0b:
                    3a:0b:4a:d4:c0:4b:52:56:94:81:74:47:32:83:27:
                    d2:a6:ac:fa:f9:46:d5:a1:81:25:45:88:6e:72:44:
                    eb:69:a1:f0:60:11:f3:90:63:cb:c4:ce:76:da:a3:
                    c1:00:51:2f:2f:70:c3:c6:e2:8d:6d:ea:a9:75:56:
                    8b:ba:c5:34:7a:94:a1:2d:d9:fb:17:3f:82:d4:b8:
                    bc:6c:6a:5f:ab:76:b1:eb:32:b2:fa:16:f3:14:a7:
                    bb:4c:b9:be:80:8b:c3:92:a7:b1:5f:a0:f3:5b:8d:
                    f7:b9:54:df:04:66:5a:43:eb:0e:1e:3b:a7:f1:95:
                    df:3b:f1
                Exponent: 65537 (0x10001)
        X509v3 extensions:
            X509v3 Basic Constraints: 
                CA:FALSE
            X509v3 Key Usage: 
                Digital Signature, Key Encipherment
            X509v3 Subject Alternative Name: 
                URI:spiffe://test.cassandra.apache.org/cassandra-gocql-driver/integrationTest/gocql
            X509v3 Subject Key Identifier: 
                C1:76:E6:E4:22:F4:9C:8A:26:8C:28:62:F9:18:25:2A:53:92:57:45
            X509v3 Authority Key Identifier: 
                91:E4:CD:B1:83:17:E9:5C:10:99:1C:81:83:5A:93:72:1F:36:73:5B
    Signature Algorithm: sha256WithRSAEncryption
    Signature Value:
        4b:37:dc:28:e6:bd:58:6c:a0:99:8a:26:c9:07:c1:89:b8:57:
        38:cc:32:e8:c4:61:84:97:f5:5e:7e:46:ed:91:13:ca:ae:18:
        d0:74:ff:ee:a3:d2:81:b7:65:6f:d4:65:fa:cd:ba:96:dc:6f:
        e9:a8:0f:8f:62:65:2c:d1:14:3b:10:57:43:a2:ad:4d:28:0f:
        f3:1b:cb:57:ba:e5:1f:bf:6c:f8:f4:41:8c:b0:d4:e1:89:e2:
        3a:f1:e8:b3:6b:67:07:82:d2:5a:de:fd:af:69:03:b2:c5:e9:
        c0:c8:fa:39:ff:6e:ca:5e:37:17:8c:32:0f:03:11:7b:2e:be:
        c8:90:1a:48:bf:d2:8f:1a:f4:2f:03:2f:4d:5d:5b:58:20:df:
        0e:93:44:95:10:6a:0a:c5:d5:6a:6d:9c:b8:ee:a4:d2:3c:2f:
        79:d3:3e:d7:74:e1:c4:0b:74:5e:fb:00:b1:34:75:3d:da:ec:
        f2:9e:88:b9:77:30:1c:2d:17:a5:36:0e:7b:75:d0:80:c6:bd:
        8b:fb:05:b6:ed:7c:1a:2e:06:a1:e2:e6:bd:a4:da:79:ec:3f:
        fc:17:43:6b:30:96:e7:a5:c9:c8:fd:6a:eb:89:af:e6:37:40:
        17:10:dc:7c:09:b0:53:88:34:f0:22:49:8e:47:43:0d:25:2d:
        3a:b6:98:bd:f7:dc:3c:0b:fa:38:93:6f:84:f9:bf:04:cd:93:
        6b:b9:30:32:22:cc:43:3f:6a:96:ff:73:2f:c7:62:d9:48:5f:
        08:22:e4:97:ed:fc:53:6a:7d:b1:d5:e6:3c:70:ea:5d:e3:70:
        fc:71:9f:8a:9f:78:86:6a:f5:bf:dd:41:fb:08:16:af:6e:0e:
        9a:1d:c3:62:2f:2f:33:5a:a9:92:60:0b:05:26:c6:87:3a:7c:
        fe:88:e8:92:9f:46:d3:ee:fe:23:7c:b0:9e:e6:97:0d:a9:95:
        ff:34:a4:b6:7b:00:8b:e4:47:9c:8f:04:a3:9d:e4:4f:86:7b:
        d3:c9:2e:b8:02:04:16:99:e1:2e:0e:91:f3:c7:da:d9:dc:1c:
        4b:15:6c:7d:c6:2a:00:6e:0b:4f:14:37:9f:bb:ad:ef:cd:b8:
        1c:60:25:06:58:40:b2:60:0f:5e:50:c1:cb:03:93:b5:66:d4:
        3b:77:38:2b:b5:53:a0:ad:e9:e9:a6:25:18:69:f2:23:a0:74:
        e7:d3:db:81:28:e7:26:50:a6:be:ee:67:29:3e:79:4d:f4:71:
        f0:c0:c5:d3:e6:cb:c5:1d:26:45:b9:9f:6a:b3:30:dd:ec:7e:
        00:d3:ac:a1:2d:81:95:2f:29:46:b7:20:17:01:c6:b4:d2:0e:
        1d:9a:fc:b2:46:94:f8:6d
-----BEGIN CERTIFICATE-----
MIIFZTCCA02gAwIBAgIUGLtOHL+5RMxYxzalXea3vY6QlekwDQYJKoZIhvcNAQEL
BQAwDTELMAkGA1UEAwwCY2EwIBcNMjQwODI5MTU1MTA2WhgPMjEyNDA4MDUxNTUx
MDZaMBAxDjAMBgNVBAMMBWdvY3FsMIICIjANBgkqhkiG9w0BAQEFAAOCAg8AMIIC
CgKCAgEAsSPQ1OYjsZ5sFSlQEG6vfgbIYya5vHpIpIEGLbBcDTNm3h9vmzyYSJYy
NiXGCKYRG5daW3ru7ozPKxEtrBeZUn2Q1NrlJMKoZMB5DXA62my+JKaWHKpaO3rD
phqS3aSVnEUFENVCicaUC9WfU94yX0HgH4c6kPHgvVrjCYKX2HWGbxgVBkgz+vF6
gs8Tl4yhcphagXNU4d9yf0mC4KspJyoCviMK9xOEL5dofhB+ivwewD6pIC8C8W9u
zR8x2cFV/hqMI7RTkQXIv27CmsK+yNXMLDbGgLD9C4jH5Nt9F/9xsPCyBFer5QSc
ho7m5n8HQUSRTbvS1xplEU9omRG5WJiZDoKUpDKZ9q1Dg9yJdBRCtQ3bjheTAcDM
xM3xz1k8BYl7BOlfiJCtUgEETrTtdvQMAL1i7XWVqdFC5KqXzUs8XWl4oPQPN2hS
Vp+81TOnUuPbcBXWBoxgmcVEFpElM4+W4d2BHGMS4DVUQgPZvokrl111n30T78iG
+9ZSfYYE34lI9ws6C0rUwEtSVpSBdEcygyfSpqz6+UbVoYElRYhuckTraaHwYBHz
kGPLxM522qPBAFEvL3DDxuKNbeqpdVaLusU0epShLdn7Fz+C1Li8bGpfq3ax6zKy
+hbzFKe7TLm+gIvDkqexX6DzW433uVTfBGZaQ+sOHjun8ZXfO/ECAwEAAaOBtzCB
tDAJBgNVHRMEAjAAMAsGA1UdDwQEAwIFoDBaBgNVHREEUzBRhk9zcGlmZmU6Ly90
ZXN0LmNhc3NhbmRyYS5hcGFjaGUub3JnL2Nhc3NhbmRyYS1nb2NxbC1kcml2ZXIv
aW50ZWdyYXRpb25UZXN0L2dvY3FsMB0GA1UdDgQWBBTBdubkIvSciiaMKGL5GCUq
U5JXRTAfBgNVHSMEGDAWgBSR5M2xgxfpXBCZHIGDWpNyHzZzWzANBgkqhkiG9w0B
AQsFAAOCAgEASzfcKOa9WGygmYomyQfBibhXOMwy6MRhhJf1Xn5G7ZETyq4Y0HT/
7qPSgbdlb9Rl+s26ltxv6agPj2JlLNEUOxBXQ6KtTSgP8xvLV7rlH79s+PRBjLDU
4YniOvHos2tnB4LSWt79r2kDssXpwMj6Of9uyl43F4wyDwMRey6+yJAaSL/Sjxr0
LwMvTV1bWCDfDpNElRBqCsXVam2cuO6k0jwvedM+13ThxAt0XvsAsTR1Pdrs8p6I
uXcwHC0XpTYOe3XQgMa9i/sFtu18Gi4GoeLmvaTaeew//BdDazCW56XJyP1q64mv
5jdAFxDcfAmwU4g08CJJjkdDDSUtOraYvffcPAv6OJNvhPm/BM2Ta7kwMiLMQz9q
lv9zL8di2UhfCCLkl+38U2p9sdXmPHDqXeNw/HGfip94hmr1v91B+wgWr24Omh3D
Yi8vM1qpkmALBSbGhzp8/ojokp9G0+7+I3ywnuaXDamV/zSktnsAi+RHnI8Eo53k
T4Z708kuuAIEFpnhLg6R88fa2dwcSxVsfcYqAG4LTxQ3n7ut7824HGAlBlhAsmAP
XlDBywOTtWbUO3c4K7VToK3p6aYlGGnyI6B059PbgSjnJlCmvu5nKT55TfRx8MDF
0+bLxR0mRbmfarMw3ex+ANOsoS2BlS8pRrcgFwHGtNIOHZr8skaU+G0=
-----END CERTIFICATE-----
